target datalayout = "e-m:e-p270:32:32-p271:32:32-p272:64:64-i64:64-i128:128-f80:128-n8:16:32:64-S128"
target triple = "x86_64-pc-linux-gnu"

%"class.arrow::Status" = type { ptr }
%"class.std::__cxx11::basic_string" = type { %"struct.std::__cxx11::basic_string<char>::_Alloc_hider", i64, %union.anon }
%"struct.std::__cxx11::basic_string<char>::_Alloc_hider" = type { ptr }
%union.anon = type { i64, [8 x i8] }

; Function Attrs: mustprogress nounwind uwtable
define linkonce_odr void @_ZNSt15__new_allocatorIcE10deallocateEPcm(ptr noundef nonnull align 1 dereferenceable(1) %0, ptr noundef %1, i64 noundef %2) #0 comdat align 2 {
  %4 = alloca ptr, align 8
  %5 = alloca ptr, align 8
  %6 = alloca i64, align 8
  store ptr %0, ptr %4, align 8, !tbaa !348
  store ptr %1, ptr %5, align 8, !tbaa !249
  store i64 %2, ptr %6, align 8, !tbaa !43
  %7 = load ptr, ptr %5, align 8, !tbaa !249
  %8 = load i64, ptr %6, align 8, !tbaa !43
  %9 = mul i64 %8, 1
  call void @_ZdlPvm(ptr noundef %7, i64 noundef %9) #11
  ret void
}

; Function Attrs: mustprogress nounwind uwtable
define linkonce_odr noundef ptr @_ZNSt19__ptr_traits_ptr_toIPKcS0_Lb0EE10pointer_toERS0_(ptr noundef nonnull align 1 dereferenceable(1) %0) #0 comdat align 2 {
  %2 = alloca ptr, align 8
  store ptr %0, ptr %2, align 8, !tbaa !249
  %3 = load ptr, ptr %2, align 8, !tbaa !249
  ret ptr %3
}

; Function Attrs: mustprogress uwtable
define linkonce_odr void @_ZNSt16allocator_traitsISaIcEE10deallocateERS0_Pcm(ptr noundef nonnull align 1 dereferenceable(1) %0, ptr noundef %1, i64 noundef %2) #1 comdat align 2 {
  %4 = alloca ptr, align 8
  %5 = alloca ptr, align 8
  %6 = alloca i64, align 8
  store ptr %0, ptr %4, align 8, !tbaa !354
  store ptr %1, ptr %5, align 8, !tbaa !249
  store i64 %2, ptr %6, align 8, !tbaa !43
  %7 = load ptr, ptr %4, align 8, !tbaa !354
  %8 = load ptr, ptr %5, align 8, !tbaa !249
  %9 = load i64, ptr %6, align 8, !tbaa !43
  call void @_ZNSt15__new_allocatorIcE10deallocateEPcm(ptr noundef nonnull align 1 dereferenceable(1) %7, ptr noundef %8, i64 noundef %9)
  ret void
}

; Function Attrs: mustprogress nounwind uwtable
define available_externally noundef nonnull align 1 dereferenceable(1) ptr @_ZNSt7__cxx1112basic_stringIcSt11char_traitsIcESaIcEE16_M_get_allocatorEv(ptr noundef nonnull align 8 dereferenceable(32) %0) #0 align 2 {
  %2 = alloca ptr, align 8
  store ptr %0, ptr %2, align 8, !tbaa !59
  %3 = load ptr, ptr %2, align 8
  %4 = getelementptr inbounds nuw %"class.std::__cxx11::basic_string", ptr %3, i32 0, i32 0
  ret ptr %4
}

; Function Attrs: mustprogress nounwind uwtable
define available_externally noundef ptr @_ZNKSt7__cxx1112basic_stringIcSt11char_traitsIcESaIcEE13_M_local_dataEv(ptr noundef nonnull align 8 dereferenceable(32) %0) #0 align 2 {
  %2 = alloca ptr, align 8
  store ptr %0, ptr %2, align 8, !tbaa !59
  %3 = load ptr, ptr %2, align 8
  %4 = getelementptr inbounds nuw %"class.std::__cxx11::basic_string", ptr %3, i32 0, i32 2
  %5 = getelementptr inbounds [16 x i8], ptr %4, i64 0, i64 0
  %6 = call noundef ptr @_ZNSt19__ptr_traits_ptr_toIPKcS0_Lb0EE10pointer_toERS0_(ptr noundef nonnull align 1 dereferenceable(1) %5) #9
  ret ptr %6
}

; Function Attrs: mustprogress nounwind uwtable
define available_externally noundef ptr @_ZNKSt7__cxx1112basic_stringIcSt11char_traitsIcESaIcEE7_M_dataEv(ptr noundef nonnull align 8 dereferenceable(32) %0) #0 align 2 {
  %2 = alloca ptr, align 8
  store ptr %0, ptr %2, align 8, !tbaa !59
  %3 = load ptr, ptr %2, align 8
  %4 = getelementptr inbounds nuw %"class.std::__cxx11::basic_string", ptr %3, i32 0, i32 0
  %5 = getelementptr inbounds nuw %"struct.std::__cxx11::basic_string<char>::_Alloc_hider", ptr %4, i32 0, i32 0
  %6 = load ptr, ptr %5, align 8, !tbaa !353
  ret ptr %6
}

; Function Attrs: mustprogress nounwind uwtable
define available_externally void @_ZNSt7__cxx1112basic_stringIcSt11char_traitsIcESaIcEE10_M_destroyEm(ptr noundef nonnull align 8 dereferenceable(32) %0, i64 noundef %1) #0 align 2 personality ptr @__gxx_personality_v0 {
  %3 = alloca ptr, align 8
  %4 = alloca i64, align 8
  store ptr %0, ptr %3, align 8, !tbaa !59
  store i64 %1, ptr %4, align 8, !tbaa !43
  %5 = load ptr, ptr %3, align 8
  %6 = invoke noundef nonnull align 1 dereferenceable(1) ptr @_ZNSt7__cxx1112basic_stringIcSt11char_traitsIcESaIcEE16_M_get_allocatorEv(ptr noundef nonnull align 8 dereferenceable(32) %5)
          to label %7 unwind label %12

7:                                                ; preds = %2
  %8 = call noundef ptr @_ZNKSt7__cxx1112basic_stringIcSt11char_traitsIcESaIcEE7_M_dataEv(ptr noundef nonnull align 8 dereferenceable(32) %5)
  %9 = load i64, ptr %4, align 8, !tbaa !43
  %10 = add i64 %9, 1
  invoke void @_ZNSt16allocator_traitsISaIcEE10deallocateERS0_Pcm(ptr noundef nonnull align 1 dereferenceable(1) %6, ptr noundef %8, i64 noundef %10)
          to label %11 unwind label %12

11:                                               ; preds = %7
  ret void

12:                                               ; preds = %7, %2
  %13 = landingpad { ptr, i32 }
          catch ptr null
  %14 = extractvalue { ptr, i32 } %13, 0
  call void @__clang_call_terminate(ptr %14) #10
  unreachable
}

; Function Attrs: mustprogress uwtable
define available_externally noundef zeroext i1 @_ZNKSt7__cxx1112basic_stringIcSt11char_traitsIcESaIcEE11_M_is_localEv(ptr noundef nonnull align 8 dereferenceable(32) %0) #1 align 2 {
  %2 = alloca i1, align 1
  %3 = alloca ptr, align 8
  store ptr %0, ptr %3, align 8, !tbaa !59
  %4 = load ptr, ptr %3, align 8
  %5 = call noundef ptr @_ZNKSt7__cxx1112basic_stringIcSt11char_traitsIcESaIcEE7_M_dataEv(ptr noundef nonnull align 8 dereferenceable(32) %4)
  %6 = call noundef ptr @_ZNKSt7__cxx1112basic_stringIcSt11char_traitsIcESaIcEE13_M_local_dataEv(ptr noundef nonnull align 8 dereferenceable(32) %4)
  %7 = icmp eq ptr %5, %6
  br i1 %7, label %8, label %14

8:                                                ; preds = %1
  %9 = getelementptr inbounds nuw %"class.std::__cxx11::basic_string", ptr %4, i32 0, i32 1
  %10 = load i64, ptr %9, align 8, !tbaa !350
  %11 = icmp ugt i64 %10, 15
  br i1 %11, label %12, label %13

12:                                               ; preds = %8
  unreachable

13:                                               ; preds = %8
  store i1 true, ptr %2, align 1
  br label %15

14:                                               ; preds = %1
  store i1 false, ptr %2, align 1
  br label %15

15:                                               ; preds = %14, %13
  %16 = load i1, ptr %2, align 1
  ret i1 %16
}

; Function Attrs: noinline noreturn nounwind uwtable
define linkonce_odr hidden void @__clang_call_terminate(ptr noundef %0) #4 comdat {
  %2 = call ptr @__cxa_begin_catch(ptr %0) #9
  call void @_ZSt9terminatev() #10
  unreachable
}

; Function Attrs: mustprogress nounwind uwtable
define linkonce_odr void @_ZNSt15__new_allocatorIcED2Ev(ptr noundef nonnull align 1 dereferenceable(1) %0) unnamed_addr #0 comdat align 2 {
  %2 = alloca ptr, align 8
  store ptr %0, ptr %2, align 8, !tbaa !348
  ret void
}

; Function Attrs: mustprogress uwtable
define available_externally void @_ZNSt7__cxx1112basic_stringIcSt11char_traitsIcESaIcEE10_M_disposeEv(ptr noundef nonnull align 8 dereferenceable(32) %0) #1 align 2 {
  %2 = alloca ptr, align 8
  store ptr %0, ptr %2, align 8, !tbaa !59
  %3 = load ptr, ptr %2, align 8
  %4 = call noundef zeroext i1 @_ZNKSt7__cxx1112basic_stringIcSt11char_traitsIcESaIcEE11_M_is_localEv(ptr noundef nonnull align 8 dereferenceable(32) %3)
  br i1 %4, label %8, label %5

5:                                                ; preds = %1
  %6 = getelementptr inbounds nuw %"class.std::__cxx11::basic_string", ptr %3, i32 0, i32 2
  %7 = load i64, ptr %6, align 8, !tbaa !22
  call void @_ZNSt7__cxx1112basic_stringIcSt11char_traitsIcESaIcEE10_M_destroyEm(ptr noundef nonnull align 8 dereferenceable(32) %3, i64 noundef %7) #9
  br label %8

8:                                                ; preds = %5, %1
  ret void
}

; Function Attrs: mustprogress nounwind uwtable
define available_externally void @_ZNSt7__cxx1112basic_stringIcSt11char_traitsIcESaIcEED2Ev(ptr noundef nonnull align 8 dereferenceable(32) %0) unnamed_addr #0 align 2 personality ptr @__gxx_personality_v0 {
  %2 = alloca ptr, align 8
  store ptr %0, ptr %2, align 8, !tbaa !59
  %3 = load ptr, ptr %2, align 8
  invoke void @_ZNSt7__cxx1112basic_stringIcSt11char_traitsIcESaIcEE10_M_disposeEv(ptr noundef nonnull align 8 dereferenceable(32) %3)
          to label %4 unwind label %6

4:                                                ; preds = %1
  %5 = getelementptr inbounds nuw %"class.std::__cxx11::basic_string", ptr %3, i32 0, i32 0
  call void @_ZNSt15__new_allocatorIcED2Ev(ptr noundef nonnull align 8 dereferenceable(8) %5) #9
  ret void

6:                                                ; preds = %1
  %7 = landingpad { ptr, i32 }
          catch ptr null
  %8 = extractvalue { ptr, i32 } %7, 0
  call void @__clang_call_terminate(ptr %8) #10
  unreachable
}

; Function Attrs: mustprogress uwtable
define linkonce_odr void @_ZN5arrow6Status14NotImplementedIJNSt7__cxx1112basic_stringIcSt11char_traitsIcESaIcEEEEEES0_DpOT_(ptr dead_on_unwind noalias writable sret(%"class.arrow::Status") align 8 %0, ptr noundef nonnull align 8 dereferenceable(32) %1) #1 comdat align 2 {
  %3 = alloca ptr, align 8
  %4 = alloca ptr, align 8
  store ptr %0, ptr %3, align 8
  store ptr %1, ptr %4, align 8, !tbaa !59
  %5 = load ptr, ptr %4, align 8, !tbaa !59
  call void @_ZN5arrow6Status8FromArgsIJNSt7__cxx1112basic_stringIcSt11char_traitsIcESaIcEEEEEES0_NS_10StatusCodeEDpOT_(ptr dead_on_unwind writable sret(%"class.arrow::Status") align 8 %0, i8 noundef signext 10, ptr noundef nonnull align 8 dereferenceable(32) %5)
  ret void
}

; Function Attrs: mustprogress uwtable
define void @_ZN5arrow11TypeVisitor5VisitERKNS_8ListTypeE(ptr dead_on_unwind noalias writable sret(%"class.arrow::Status") align 8 %0, ptr noundef nonnull align 8 dereferenceable(8) %1, ptr noundef nonnull align 8 dereferenceable(72) %2) unnamed_addr #1 align 2 personality ptr @__gxx_personality_v0 {
  %4 = alloca ptr, align 8
  %5 = alloca ptr, align 8
  %6 = alloca ptr, align 8
  %7 = alloca %"class.std::__cxx11::basic_string", align 8
  %8 = alloca ptr, align 8
  %9 = alloca i32, align 4
  store ptr %0, ptr %4, align 8
  store ptr %1, ptr %5, align 8, !tbaa !153
  store ptr %2, ptr %6, align 8, !tbaa !221
  call void @llvm.lifetime.start.p0(i64 32, ptr %7) #9
  %10 = load ptr, ptr %6, align 8, !tbaa !221
  %11 = load ptr, ptr %10, align 8, !tbaa !57
  %12 = getelementptr inbounds ptr, ptr %11, i64 4
  %13 = load ptr, ptr %12, align 8
  call void %13(ptr dead_on_unwind writable sret(%"class.std::__cxx11::basic_string") align 8 %7, ptr noundef nonnull align 8 dereferenceable(72) %10, i1 noundef zeroext false)
  invoke void @_ZN5arrow6Status14NotImplementedIJNSt7__cxx1112basic_stringIcSt11char_traitsIcESaIcEEEEEES0_DpOT_(ptr dead_on_unwind writable sret(%"class.arrow::Status") align 8 %0, ptr noundef nonnull align 8 dereferenceable(32) %7)
          to label %14 unwind label %15

14:                                               ; preds = %3
  call void @_ZNSt7__cxx1112basic_stringIcSt11char_traitsIcESaIcEED2Ev(ptr noundef nonnull align 8 dereferenceable(32) %7) #9
  call void @llvm.lifetime.end.p0(i64 32, ptr %7) #9
  ret void

15:                                               ; preds = %3
  %16 = landingpad { ptr, i32 }
          cleanup
  %17 = extractvalue { ptr, i32 } %16, 0
  store ptr %17, ptr %8, align 8
  %18 = extractvalue { ptr, i32 } %16, 1
  store i32 %18, ptr %9, align 4
  call void @_ZNSt7__cxx1112basic_stringIcSt11char_traitsIcESaIcEED2Ev(ptr noundef nonnull align 8 dereferenceable(32) %7) #9
  call void @llvm.lifetime.end.p0(i64 32, ptr %7) #9
  br label %19

19:                                               ; preds = %15
  %20 = load ptr, ptr %8, align 8
  %21 = load i32, ptr %9, align 4
  %22 = insertvalue { ptr, i32 } poison, ptr %20, 0
  %23 = insertvalue { ptr, i32 } %22, i32 %21, 1
  resume { ptr, i32 } %23
}